#include <math.h>
#include <stdio.h>
#include <stdlib.h>
#include <string.h>

main()
{
	int n,k,i,s,e;
	scanf("%d %d",&n,&k);
	s=n+k;
	e=s;
	goto abc;
loop:s=n+s;
	 e=s;
abc:for(i=2;i<=n;i++)
	{
		if((n*e)%(n-1)==0)	e=n*e/(n-1)+k;
		else goto loop;
	}
	printf("%d",e);
}