; ModuleID = '54/358.c'
source_filename = "54/358.c"
target datalayout = "e-m:e-p270:32:32-p271:32:32-p272:64:64-i64:64-f80:128-n8:16:32:64-S128"
target triple = "x86_64-pc-linux-gnu"

@.str = private unnamed_addr constant [6 x i8] c"%d %d\00", align 1
@.str.1 = private unnamed_addr constant [3 x i8] c"%d\00", align 1

; Function Attrs: noinline nounwind uwtable
define dso_local i32 @main() #0 {
  %1 = alloca i32, align 4
  %2 = alloca i32, align 4
  %3 = alloca i32, align 4
  %4 = alloca i32, align 4
  %5 = alloca i32, align 4
  %6 = alloca i32, align 4
  store i32 0, i32* %1, align 4
  %7 = call i32 (i8*, ...) @__isoc99_scanf(i8* getelementptr inbounds ([6 x i8], [6 x i8]* @.str, i64 0, i64 0), i32* %2, i32* %3)
  %8 = load i32, i32* %2, align 4
  %9 = load i32, i32* %3, align 4
  %10 = add nsw i32 %8, %9
  store i32 %10, i32* %5, align 4
  %11 = load i32, i32* %5, align 4
  store i32 %11, i32* %6, align 4
  br label %17

12:                                               ; preds = %39
  %13 = load i32, i32* %2, align 4
  %14 = load i32, i32* %5, align 4
  %15 = add nsw i32 %13, %14
  store i32 %15, i32* %5, align 4
  %16 = load i32, i32* %5, align 4
  store i32 %16, i32* %6, align 4
  br label %17

17:                                               ; preds = %12, %0
  store i32 2, i32* %4, align 4
  br label %18

18:                                               ; preds = %41, %17
  %19 = load i32, i32* %4, align 4
  %20 = load i32, i32* %2, align 4
  %21 = icmp sle i32 %19, %20
  br i1 %21, label %22, label %44

22:                                               ; preds = %18
  %23 = load i32, i32* %2, align 4
  %24 = load i32, i32* %6, align 4
  %25 = mul nsw i32 %23, %24
  %26 = load i32, i32* %2, align 4
  %27 = sub nsw i32 %26, 1
  %28 = srem i32 %25, %27
  %29 = icmp eq i32 %28, 0
  br i1 %29, label %30, label %39

30:                                               ; preds = %22
  %31 = load i32, i32* %2, align 4
  %32 = load i32, i32* %6, align 4
  %33 = mul nsw i32 %31, %32
  %34 = load i32, i32* %2, align 4
  %35 = sub nsw i32 %34, 1
  %36 = sdiv i32 %33, %35
  %37 = load i32, i32* %3, align 4
  %38 = add nsw i32 %36, %37
  store i32 %38, i32* %6, align 4
  br label %40

39:                                               ; preds = %22
  br label %12

40:                                               ; preds = %30
  br label %41

41:                                               ; preds = %40
  %42 = load i32, i32* %4, align 4
  %43 = add nsw i32 %42, 1
  store i32 %43, i32* %4, align 4
  br label %18

44:                                               ; preds = %18
  %45 = load i32, i32* %6, align 4
  %46 = call i32 (i8*, ...) @printf(i8* getelementptr inbounds ([3 x i8], [3 x i8]* @.str.1, i64 0, i64 0), i32 %45)
  %47 = load i32, i32* %1, align 4
  ret i32 %47
}

declare dso_local i32 @__isoc99_scanf(i8*, ...) #1

declare dso_local i32 @printf(i8*, ...) #1


!llvm.module.flags = !{!0}
!llvm.ident = !{!1}

!0 = !{i32 1, !"wchar_size", i32 4}
!1 = !{!"clang version 10.0.0-4ubuntu1 "}
